; Function Attrs: mustprogress uwtable
define hidden void @_ZN4lean11instantiateERKNS_4exprEjjPS1_(ptr dead_on_unwind noalias writable sret(%"class.lean::expr") align 8 %0, ptr noundef nonnull align 8 dereferenceable(8) %1, i32 noundef %2, i32 noundef %3, ptr noundef %4) local_unnamed_addr #0 personality ptr @__gxx_personality_v0 {
  %6 = alloca %"class.std::function", align 8
  %7 = tail call noundef i32 @_ZN4lean20get_loose_bvar_rangeERKNS_4exprE(ptr noundef nonnull align 8 dereferenceable(8) %1)
  %8 = icmp uge i32 %2, %7
  %9 = icmp eq i32 %3, 0
  %or.cond = or i1 %9, %8
  br i1 %or.cond, label %10, label %20

10:                                               ; preds = %5
  %11 = load ptr, ptr %1, align 8, !tbaa !3
  store ptr %11, ptr %0, align 8, !tbaa !3
  %12 = ptrtoint ptr %11 to i64
  %13 = and i64 %12, 1
  %.not.i.i.i = icmp eq i64 %13, 0
  br i1 %.not.i.i.i, label %14, label %_ZN4lean4exprC2ERKS0_.exit

14:                                               ; preds = %10
  %.val.i.i.i.i = load i32, ptr %11, align 4, !tbaa !8
  %15 = icmp sgt i32 %.val.i.i.i.i, 0
  br i1 %15, label %16, label %18, !prof !11

16:                                               ; preds = %14
  %17 = add nuw nsw i32 %.val.i.i.i.i, 1
  store i32 %17, ptr %11, align 4, !tbaa !8
  br label %_ZN4lean4exprC2ERKS0_.exit

18:                                               ; preds = %14
  %.not.i.i.i.i = icmp eq i32 %.val.i.i.i.i, 0
  br i1 %.not.i.i.i.i, label %_ZN4lean4exprC2ERKS0_.exit, label %19

19:                                               ; preds = %18
  tail call void @lean_inc_ref_cold(ptr noundef nonnull %11)
  br label %_ZN4lean4exprC2ERKS0_.exit

20:                                               ; preds = %5
  call void @llvm.lifetime.start.p0(i64 32, ptr nonnull %6) #12
  %21 = getelementptr inbounds nuw i8, ptr %6, i64 16
  %22 = getelementptr inbounds nuw i8, ptr %6, i64 24
  store i32 %2, ptr %6, align 8, !tbaa !12
  %.sroa.5.0..sroa_idx = getelementptr inbounds nuw i8, ptr %6, i64 4
  store i32 %3, ptr %.sroa.5.0..sroa_idx, align 4, !tbaa !12
  %.sroa.6.0..sroa_idx = getelementptr inbounds nuw i8, ptr %6, i64 8
  store ptr %4, ptr %.sroa.6.0..sroa_idx, align 8, !tbaa !13
  store ptr @"_ZNSt17_Function_handlerIFN4lean8optionalINS0_4exprEEERKS2_jEZNS0_11instantiateES5_jjPS4_E3$_0E9_M_invokeERKSt9_Any_dataS5_Oj", ptr %22, align 8, !tbaa !15
  store ptr @"_ZNSt17_Function_handlerIFN4lean8optionalINS0_4exprEEERKS2_jEZNS0_11instantiateES5_jjPS4_E3$_0E10_M_managerERSt9_Any_dataRKSA_St18_Manager_operation", ptr %21, align 8, !tbaa !18
  invoke void @_ZN4lean7replaceERKNS_4exprERKSt8functionIFNS_8optionalIS0_EES2_jEEb(ptr dead_on_unwind writable sret(%"class.lean::expr") align 8 %0, ptr noundef nonnull align 8 dereferenceable(8) %1, ptr noundef nonnull align 8 dereferenceable(32) %6, i1 noundef zeroext true)
          to label %23 unwind label %30

23:                                               ; preds = %20
  %24 = load ptr, ptr %21, align 8, !tbaa !18
  %.not.i = icmp eq ptr %24, null
  br i1 %.not.i, label %_ZNSt14_Function_baseD2Ev.exit, label %25

25:                                               ; preds = %23
  %26 = invoke noundef zeroext i1 %24(ptr noundef nonnull align 8 dereferenceable(32) %6, ptr noundef nonnull align 8 dereferenceable(32) %6, i32 noundef 3)
          to label %_ZNSt14_Function_baseD2Ev.exit unwind label %27

27:                                               ; preds = %25
  %28 = landingpad { ptr, i32 }
          catch ptr null
  %29 = extractvalue { ptr, i32 } %28, 0
  call void @__clang_call_terminate(ptr %29) #13
  unreachable

_ZNSt14_Function_baseD2Ev.exit:                   ; preds = %23, %25
  call void @llvm.lifetime.end.p0(i64 32, ptr nonnull %6) #12
  br label %_ZN4lean4exprC2ERKS0_.exit

30:                                               ; preds = %20
  %31 = landingpad { ptr, i32 }
          cleanup
  %32 = load ptr, ptr %21, align 8, !tbaa !18
  %.not.i11 = icmp eq ptr %32, null
  br i1 %.not.i11, label %_ZNSt14_Function_baseD2Ev.exit12, label %33

33:                                               ; preds = %30
  %34 = invoke noundef zeroext i1 %32(ptr noundef nonnull align 8 dereferenceable(32) %6, ptr noundef nonnull align 8 dereferenceable(32) %6, i32 noundef 3)
          to label %_ZNSt14_Function_baseD2Ev.exit12 unwind label %35

35:                                               ; preds = %33
  %36 = landingpad { ptr, i32 }
          catch ptr null
  %37 = extractvalue { ptr, i32 } %36, 0
  call void @__clang_call_terminate(ptr %37) #13
  unreachable

_ZNSt14_Function_baseD2Ev.exit12:                 ; preds = %30, %33
  call void @llvm.lifetime.end.p0(i64 32, ptr nonnull %6) #12
  resume { ptr, i32 } %31

_ZN4lean4exprC2ERKS0_.exit:                       ; preds = %19, %18, %16, %10, %_ZNSt14_Function_baseD2Ev.exit
  ret void
}